ccopy_reg
_reconstructor
p0
(c__main__
Caffe_Quantizer
p1
c__builtin__
object
p2
Ntp3
Rp4
(dp5
S'layer_type'
p6
(dp7
S'loss'
p8
S'softmaxwithloss'
p9
sS'relu3'
p10
S'relu'
p11
sS'relu2'
p12
S'relu'
p13
sS'relu1'
p14
S'relu'
p15
sS'conv3'
p16
S'convolution'
p17
sS'conv2'
p18
S'convolution'
p19
sS'conv1'
p20
S'convolution'
p21
sS'ip1'
p22
S'innerproduct'
p23
sS'pool3'
p24
S'pooling'
p25
sS'pool2'
p26
S'pooling'
p27
sS'pool1'
p28
S'pooling'
p29
sS'data'
p30
S'data'
p31
sS'accuracy'
p32
S'accuracy'
p33
ssS'weight_file'
p34
S'models/cifar10_m4_iter_70000.caffemodel.h5'
p35
sS'act_dec_bits'
p36
(dp37
S'conv3'
p38
I-1
sS'conv2'
p39
I-2
sS'conv1'
p40
I-3
sS'ip1'
p41
I3
sS'pool3'
p42
I-1
sS'pool2'
p43
I-2
sS'data'
p44
I0
sS'accuracy'
p45
I7
ssS'label_layer'
p46
S'label'
p47
sS'conv_layer'
p48
(lp49
S'conv1'
p50
aS'conv2'
p51
aS'conv3'
p52
asS'end_layer'
p53
(lp54
g44
ag40
ag39
ag43
ag38
ag42
ag41
ag45
asS'lrn_beta'
p55
(dp56
sS'layer'
p57
(lp58
g44
ag40
aS'pool1'
p59
aS'relu1'
p60
ag39
aS'relu2'
p61
ag43
ag38
aS'relu3'
p62
ag42
ag41
ag45
asS'iterations'
p63
I100
sS'bias_lshift'
p64
(dp65
g52
I0
sg51
I0
sg50
I0
sS'ip1'
p66
I5
ssS'lrn_type'
p67
(dp68
sS'act_int_bits'
p69
(dp70
g38
I8
sg39
I9
sg40
I10
sg41
I4
sg42
I8
sg43
I9
sg44
I7
sg45
I0
ssS'group'
p71
(dp72
S'conv3'
p73
I1
sS'conv2'
p74
I1
sS'conv1'
p75
I1
ssS'bottom_blob'
p76
(dp77
S'loss'
p78
(lp79
S'ip1'
p80
aS'label'
p81
asS'relu3'
p82
(lp83
S'conv3'
p84
asS'relu2'
p85
(lp86
S'conv2'
p87
asS'relu1'
p88
(lp89
S'pool1'
p90
asS'conv3'
p91
(lp92
S'pool2'
p93
asS'conv2'
p94
(lp95
S'pool1'
p96
asS'conv1'
p97
(lp98
S'data'
p99
asS'ip1'
p100
(lp101
S'pool3'
p102
asS'pool3'
p103
(lp104
S'conv3'
p105
asS'pool2'
p106
(lp107
S'conv2'
p108
asS'pool1'
p109
(lp110
S'conv1'
p111
asS'data'
p112
(lp113
sS'accuracy'
p114
(lp115
S'ip1'
p116
aS'label'
p117
assS'model_file'
p118
S'models/cifar10_m4_train_test.prototxt'
p119
sS'layer_wt_shape'
p120
(dp121
S'conv3'
p122
(I32
I16
I5
I5
tp123
sS'conv2'
p124
(I16
I32
I5
I5
tp125
sS'conv1'
p126
(I32
I3
I5
I5
tp127
sS'ip1'
p128
(I10
I512
tp129
ssS'pad'
p130
(dp131
S'conv3'
p132
L2L
sS'conv2'
p133
L2L
sS'conv1'
p134
L2L
sS'pool3'
p135
I0
sS'pool2'
p136
I0
sS'pool1'
p137
I0
ssS'data_layer'
p138
S'data'
p139
sS'gpu'
p140
I01
sS'num_wts'
p141
(dp142
sS'accuracy_layer'
p143
g45
sS'ip_layer'
p144
(lp145
g66
asS'lrn_size'
p146
(dp147
sS'act_rshift'
p148
(dp149
g52
I8
sg51
I8
sg50
I11
sg66
I7
ssS'wt_dec_bits'
p150
(dp151
g52
I9
sg51
I9
sg50
I8
sg66
I11
ssS'lrn_alpha'
p152
(dp153
sS'quant_weight_file'
p154
S'models/quantized_cifar10_m4_iter_70000.caffemodel'
p155
sS'top_blob'
p156
(dp157
S'loss'
p158
(lp159
S'loss'
p160
asg62
(lp161
S'conv3'
p162
asg61
(lp163
S'conv2'
p164
asg60
(lp165
S'pool1'
p166
asg38
(lp167
S'conv3'
p168
asg39
(lp169
S'conv2'
p170
asg40
(lp171
S'conv1'
p172
asg41
(lp173
S'ip1'
p174
asg42
(lp175
S'pool3'
p176
asg43
(lp177
S'pool2'
p178
asg59
(lp179
S'pool1'
p180
asg44
(lp181
S'data'
p182
aS'label'
p183
asS'accuracy'
p184
(lp185
S'accuracy'
p186
assS'bias_int_bits'
p187
(dp188
g52
I0
sg51
I1
sg50
I-1
sg66
I2
ssS'bias_dec_bits'
p189
(dp190
g52
I7
sg51
I6
sg50
I8
sg66
I5
ssS'start_layer'
p191
(lp192
S''
p193
ag40
ag59
ag61
ag38
ag62
ag41
ag45
asS'pool_type'
p194
(dp195
S'pool3'
p196
I1
sS'pool2'
p197
I1
sS'pool1'
p198
I0
ssS'stride'
p199
(dp200
S'conv3'
p201
L1L
sS'conv2'
p202
L1L
sS'conv1'
p203
L1L
sS'pool3'
p204
I2
sS'pool2'
p205
I2
sS'pool1'
p206
I2
ssS'layer_shape'
p207
(dp208
S'loss'
p209
(tsS'relu3'
p210
(I100
I32
I8
I8
tp211
sS'relu2'
p212
(I100
I16
I16
I16
tp213
sS'relu1'
p214
(I100
I32
I16
I16
tp215
sS'conv3'
p216
(I100
I32
I8
I8
tp217
sS'conv2'
p218
(I100
I16
I16
I16
tp219
sS'conv1'
p220
(I100
I32
I32
I32
tp221
sS'ip1'
p222
(I100
I10
tp223
sS'pool3'
p224
(I100
I32
I4
I4
tp225
sS'pool2'
p226
(I100
I16
I8
I8
tp227
sS'pool1'
p228
(I100
I32
I16
I16
tp229
sS'data'
p230
(I100
I3
I32
I32
tp231
sS'accuracy'
p232
(tssS'num_ops'
p233
(dp234
sS'wt_int_bits'
p235
(dp236
g52
I-2
sg51
I-2
sg50
I-1
sg66
I-4
ssS'kernel_size'
p237
(dp238
S'conv3'
p239
L5L
sS'conv2'
p240
L5L
sS'conv1'
p241
L5L
sS'pool3'
p242
I3
sS'pool2'
p243
I3
sS'pool1'
p244
I3
ssb.