ccopy_reg
_reconstructor
p0
(c__main__
Caffe_Quantizer
p1
c__builtin__
object
p2
Ntp3
Rp4
(dp5
S'layer_type'
p6
(dp7
S'loss'
p8
S'softmaxwithloss'
p9
sS'relu3'
p10
S'relu'
p11
sS'relu2'
p12
S'relu'
p13
sS'relu1'
p14
S'relu'
p15
sS'conv3'
p16
S'convolution'
p17
sS'conv2'
p18
S'convolution'
p19
sS'conv1'
p20
S'convolution'
p21
sS'ip1'
p22
S'innerproduct'
p23
sS'pool3'
p24
S'pooling'
p25
sS'pool2'
p26
S'pooling'
p27
sS'pool1'
p28
S'pooling'
p29
sS'data'
p30
S'data'
p31
sS'accuracy'
p32
S'accuracy'
p33
ssS'weight_file'
p34
S'models/cifar10_m4_iter_70000.caffemodel.h5'
p35
sS'act_dec_bits'
p36
(dp37
S'conv3'
p38
I-1
sS'conv2'
p39
I-2
sS'conv1'
p40
I-3
sS'ip1'
p41
I3
sS'pool3'
p42
I-1
sS'pool2'
p43
I-2
sS'data'
p44
I0
sS'accuracy'
p45
I7
ssS'label_layer'
p46
S'label'
p47
sS'conv_layer'
p48
(lp49
S'conv1'
p50
aS'conv2'
p51
aS'conv3'
p52
asS'end_layer'
p53
(lp54
g44
ag40
ag39
ag43
ag38
ag42
ag41
ag45
asS'lrn_beta'
p55
(dp56
sS'layer'
p57
(lp58
g44
ag40
aS'pool1'
p59
aS'relu1'
p60
ag39
aS'relu2'
p61
ag43
ag38
aS'relu3'
p62
ag42
ag41
ag45
asS'mean_file'
p63
V/home/embedded/caffe/examples/cifar10/mean.binaryproto
p64
sS'iterations'
p65
I100
sS'bias_lshift'
p66
(dp67
g52
I0
sg51
I0
sg50
I0
sS'ip1'
p68
I5
ssS'lrn_type'
p69
(dp70
sS'act_int_bits'
p71
(dp72
g38
I8
sg39
I9
sg40
I10
sg41
I4
sg42
I8
sg43
I9
sg44
I7
sg45
I0
ssS'group'
p73
(dp74
S'conv3'
p75
I1
sS'conv2'
p76
I1
sS'conv1'
p77
I1
ssS'bottom_blob'
p78
(dp79
S'loss'
p80
(lp81
S'ip1'
p82
aS'label'
p83
asS'relu3'
p84
(lp85
S'conv3'
p86
asS'relu2'
p87
(lp88
S'conv2'
p89
asS'relu1'
p90
(lp91
S'pool1'
p92
asS'conv3'
p93
(lp94
S'pool2'
p95
asS'conv2'
p96
(lp97
S'pool1'
p98
asS'conv1'
p99
(lp100
S'data'
p101
asS'ip1'
p102
(lp103
S'pool3'
p104
asS'pool3'
p105
(lp106
S'conv3'
p107
asS'pool2'
p108
(lp109
S'conv2'
p110
asS'pool1'
p111
(lp112
S'conv1'
p113
asS'data'
p114
(lp115
sS'accuracy'
p116
(lp117
S'ip1'
p118
aS'label'
p119
assS'model_file'
p120
S'models/cifar10_m4_train_test.prototxt'
p121
sS'layer_wt_shape'
p122
(dp123
S'conv3'
p124
(I32
I16
I5
I5
tp125
sS'conv2'
p126
(I16
I32
I5
I5
tp127
sS'conv1'
p128
(I32
I3
I5
I5
tp129
sS'ip1'
p130
(I10
I512
tp131
ssS'pad'
p132
(dp133
S'conv3'
p134
L2L
sS'conv2'
p135
L2L
sS'conv1'
p136
L2L
sS'pool3'
p137
I0
sS'pool2'
p138
I0
sS'pool1'
p139
I0
ssS'data_layer'
p140
S'data'
p141
sS'gpu'
p142
I00
sS'num_wts'
p143
(dp144
sS'accuracy_layer'
p145
g45
sS'ip_layer'
p146
(lp147
g68
asS'lrn_size'
p148
(dp149
sS'act_rshift'
p150
(dp151
g52
I8
sg51
I8
sg50
I11
sg68
I7
ssS'wt_dec_bits'
p152
(dp153
g52
I9
sg51
I9
sg50
I8
sg68
I11
ssS'lrn_alpha'
p154
(dp155
sS'mean_val'
p156
(lp157
sS'quant_weight_file'
p158
S'models/quantized_cifar10_m4_iter_70000.caffemodel'
p159
sS'top_blob'
p160
(dp161
S'loss'
p162
(lp163
S'loss'
p164
asg62
(lp165
S'conv3'
p166
asg61
(lp167
S'conv2'
p168
asg60
(lp169
S'pool1'
p170
asg38
(lp171
S'conv3'
p172
asg39
(lp173
S'conv2'
p174
asg40
(lp175
S'conv1'
p176
asg41
(lp177
S'ip1'
p178
asg42
(lp179
S'pool3'
p180
asg43
(lp181
S'pool2'
p182
asg59
(lp183
S'pool1'
p184
asg44
(lp185
S'data'
p186
aS'label'
p187
asS'accuracy'
p188
(lp189
S'accuracy'
p190
assS'bias_int_bits'
p191
(dp192
g52
I0
sg51
I1
sg50
I-1
sg68
I2
ssS'bias_dec_bits'
p193
(dp194
g52
I7
sg51
I6
sg50
I8
sg68
I5
ssS'start_layer'
p195
(lp196
S''
p197
ag40
ag59
ag61
ag38
ag62
ag41
ag45
asS'pool_type'
p198
(dp199
S'pool3'
p200
I1
sS'pool2'
p201
I1
sS'pool1'
p202
I0
ssS'stride'
p203
(dp204
S'conv3'
p205
L1L
sS'conv2'
p206
L1L
sS'conv1'
p207
L1L
sS'pool3'
p208
I2
sS'pool2'
p209
I2
sS'pool1'
p210
I2
ssS'layer_shape'
p211
(dp212
S'loss'
p213
(tsS'relu3'
p214
(I100
I32
I8
I8
tp215
sS'relu2'
p216
(I100
I16
I16
I16
tp217
sS'relu1'
p218
(I100
I32
I16
I16
tp219
sS'conv3'
p220
(I100
I32
I8
I8
tp221
sS'conv2'
p222
(I100
I16
I16
I16
tp223
sS'conv1'
p224
(I100
I32
I32
I32
tp225
sS'ip1'
p226
(I100
I10
tp227
sS'pool3'
p228
(I100
I32
I4
I4
tp229
sS'pool2'
p230
(I100
I16
I8
I8
tp231
sS'pool1'
p232
(I100
I32
I16
I16
tp233
sS'data'
p234
(I100
I3
I32
I32
tp235
sS'accuracy'
p236
(tssS'num_ops'
p237
(dp238
sS'wt_int_bits'
p239
(dp240
g52
I-2
sg51
I-2
sg50
I-1
sg68
I-4
ssS'kernel_size'
p241
(dp242
S'conv3'
p243
L5L
sS'conv2'
p244
L5L
sS'conv1'
p245
L5L
sS'pool3'
p246
I3
sS'pool2'
p247
I3
sS'pool1'
p248
I3
ssb.